target datalayout = "e-m:e-p270:32:32-p271:32:32-p272:64:64-i64:64-i128:128-f80:128-n8:16:32:64-S128"
target triple = "x86_64-unknown-linux-gnu"

%struct.MemoryRegion = type { %struct.Object, i8, i8, i8, i8, i8, i8, i8, i8, i8, i8, ptr, ptr, ptr, ptr, ptr, ptr, i32, i128, i64, ptr, i64, i8, i8, i8, i8, i8, ptr, i64, i32, %union.anon, %union.anon.0, %union.anon.1, ptr, i32, ptr, ptr, i8 }
%struct.Object = type { ptr, ptr, ptr, i32, ptr }
%union.anon = type { %struct.QTailQLink }
%struct.QTailQLink = type { ptr, ptr }
%union.anon.0 = type { %struct.QTailQLink }
%union.anon.1 = type { %struct.QTailQLink }
%struct.VFIOPCIDevice = type { %struct.PCIDevice, %struct.VFIODevice, %struct.VFIOINTx, i32, ptr, i64, i32, i64, ptr, i32, ptr, ptr, i32, i32, [6 x %struct.VFIOBAR], ptr, ptr, %struct.PCIHostDeviceAddress, %struct.QemuUUID, %struct.EventNotifier, %struct.EventNotifier, ptr, i32, i32, i32, i32, i32, i32, i32, i32, i32, i32, i32, i8, i8, i8, i8, i8, i8, i8, i8, i8, i8, i8, i8, i8, i8, i32, i8, i8, ptr, %struct.Notifier }
%struct.PCIDevice = type { %struct.DeviceState, i8, i8, ptr, ptr, ptr, ptr, ptr, i32, %struct.PCIReqIDCache, [64 x i8], [7 x %struct.PCIIORegion], %struct.AddressSpace, %struct.MemoryRegion, %struct.MemoryRegion, ptr, ptr, [3 x ptr], i8, i8, i32, i8, i32, ptr, ptr, ptr, ptr, ptr, ptr, %struct.MemoryRegion, %struct.MemoryRegion, %struct.MemoryRegion, ptr, i8, i32, i8, %struct.PCIExpressDevice, ptr, ptr, i32, i8, %struct.MemoryRegion, i32, ptr, ptr, ptr, ptr, ptr, i32 }
%struct.DeviceState = type { %struct.Object, ptr, ptr, i8, i8, i64, ptr, i32, i8, ptr, %struct.NamedGPIOListHead, %struct.NamedClockListHead, %struct.BusStateHead, i32, i32, i32, %struct.ResettableState, ptr, %struct.MemReentrancyGuard }
%struct.NamedGPIOListHead = type { ptr }
%struct.NamedClockListHead = type { ptr }
%struct.BusStateHead = type { ptr }
%struct.ResettableState = type { i32, i8, i8 }
%struct.MemReentrancyGuard = type { i8 }
%struct.PCIReqIDCache = type { ptr, i32 }
%struct.PCIIORegion = type { i64, i64, i8, ptr, ptr }
%struct.AddressSpace = type { %struct.rcu_head, ptr, ptr, ptr, i32, i32, ptr, %union.anon.4, %union.anon.5 }
%struct.rcu_head = type { ptr, ptr }
%union.anon.4 = type { %struct.QTailQLink }
%union.anon.5 = type { %struct.QTailQLink }
%struct.PCIExpressDevice = type { i8, i8, i8, i16, %struct.PCIEAERLog, i16, i16, i16, %struct.PCIESriovPF, %struct.PCIESriovVF }
%struct.PCIEAERLog = type { i16, i16, ptr }
%struct.PCIESriovPF = type { i16, [7 x i8], ptr, ptr }
%struct.PCIESriovVF = type { ptr, i16 }
%struct.VFIODevice = type { %struct.anon.6, %struct.anon.7, %struct.anon.8, ptr, ptr, ptr, ptr, ptr, i32, i32, i8, i8, i8, i8, i32, ptr, i32, i32, i32, ptr, ptr, i32, i8, i8 }
%struct.anon.6 = type { ptr, ptr }
%struct.anon.7 = type { ptr, ptr }
%struct.anon.8 = type { ptr, ptr }
%struct.VFIOINTx = type { i8, i8, i8, %struct.EventNotifier, %struct.EventNotifier, %struct.PCIINTxRoute, i32, ptr }
%struct.PCIINTxRoute = type { i32, i32 }
%struct.VFIOBAR = type { %struct.VFIORegion, ptr, i64, i8, i8, i8, %struct.anon.9 }
%struct.VFIORegion = type { ptr, i64, ptr, i64, i32, i32, ptr, i8 }
%struct.anon.9 = type { ptr }
%struct.PCIHostDeviceAddress = type { i32, i32, i32, i32 }
%struct.QemuUUID = type { %union.anon.10 }
%union.anon.10 = type { %struct.anon.11 }
%struct.anon.11 = type { i32, i16, i16, i8, i8, [6 x i8] }
%struct.EventNotifier = type { i32, i32, i8 }
%struct.Notifier = type { ptr, %struct.anon.12 }
%struct.anon.12 = type { ptr, ptr }

@.str.42 = private unnamed_addr constant [10 x i8] c"vfio %s: \00", align 1
@.str.95 = private unnamed_addr constant [31 x i8] c"%s(%s) reset bar %d failed: %m\00", align 1
@__func__.vfio_pci_post_reset = private unnamed_addr constant [20 x i8] c"vfio_pci_post_reset\00", align 1

; Function Attrs: nounwind sspstrong uwtable
define internal void @vfio_pci_post_reset(ptr noundef %vdev) #0 {
entry:
  %vdev.addr = alloca ptr, align 8
  %err = alloca ptr, align 8
  %nr = alloca i32, align 4
  %addr = alloca i64, align 8
  %val = alloca i32, align 4
  %len = alloca i32, align 4
  store ptr %vdev, ptr %vdev.addr, align 8
  store ptr null, ptr %err, align 8
  %0 = load ptr, ptr %vdev.addr, align 8
  %call = call i32 @vfio_intx_enable(ptr noundef %0, ptr noundef %err)
  %1 = load ptr, ptr %err, align 8
  %tobool = icmp ne ptr %1, null
  br i1 %tobool, label %if.then, label %if.end

if.then:                                          ; preds = %entry
  %2 = load ptr, ptr %err, align 8
  %3 = load ptr, ptr %vdev.addr, align 8
  %vbasedev = getelementptr inbounds %struct.VFIOPCIDevice, ptr %3, i32 0, i32 1
  %name = getelementptr inbounds %struct.VFIODevice, ptr %vbasedev, i32 0, i32 6
  %4 = load ptr, ptr %name, align 8
  call void (ptr, ptr, ...) @error_reportf_err(ptr noundef %2, ptr noundef @.str.42, ptr noundef %4)
  br label %if.end

if.end:                                           ; preds = %if.then, %entry
  store i32 0, ptr %nr, align 4
  br label %for.cond

for.cond:                                         ; preds = %for.inc, %if.end
  %5 = load i32, ptr %nr, align 4
  %cmp = icmp slt i32 %5, 6
  br i1 %cmp, label %for.body, label %for.end

for.body:                                         ; preds = %for.cond
  %6 = load ptr, ptr %vdev.addr, align 8
  %config_offset = getelementptr inbounds %struct.VFIOPCIDevice, ptr %6, i32 0, i32 5
  %7 = load i64, ptr %config_offset, align 8
  %add = add i64 %7, 16
  %8 = load i32, ptr %nr, align 4
  %mul = mul i32 4, %8
  %conv = sext i32 %mul to i64
  %add1 = add i64 %add, %conv
  store i64 %add1, ptr %addr, align 8
  store i32 0, ptr %val, align 4
  store i32 4, ptr %len, align 4
  %9 = load ptr, ptr %vdev.addr, align 8
  %vbasedev2 = getelementptr inbounds %struct.VFIOPCIDevice, ptr %9, i32 0, i32 1
  %fd = getelementptr inbounds %struct.VFIODevice, ptr %vbasedev2, i32 0, i32 8
  %10 = load i32, ptr %fd, align 8
  %11 = load i32, ptr %len, align 4
  %conv3 = zext i32 %11 to i64
  %12 = load i64, ptr %addr, align 8
  %call4 = call i64 @pwrite64(i32 noundef %10, ptr noundef %val, i64 noundef %conv3, i64 noundef %12)
  %13 = load i32, ptr %len, align 4
  %conv5 = zext i32 %13 to i64
  %cmp6 = icmp ne i64 %call4, %conv5
  br i1 %cmp6, label %if.then8, label %if.end11

if.then8:                                         ; preds = %for.body
  %14 = load ptr, ptr %vdev.addr, align 8
  %vbasedev9 = getelementptr inbounds %struct.VFIOPCIDevice, ptr %14, i32 0, i32 1
  %name10 = getelementptr inbounds %struct.VFIODevice, ptr %vbasedev9, i32 0, i32 6
  %15 = load ptr, ptr %name10, align 8
  %16 = load i32, ptr %nr, align 4
  call void (ptr, ...) @error_report(ptr noundef @.str.95, ptr noundef @__func__.vfio_pci_post_reset, ptr noundef %15, i32 noundef %16)
  br label %if.end11

if.end11:                                         ; preds = %if.then8, %for.body
  br label %for.inc

for.inc:                                          ; preds = %if.end11
  %17 = load i32, ptr %nr, align 4
  %inc = add i32 %17, 1
  store i32 %inc, ptr %nr, align 4
  br label %for.cond, !llvm.loop !19

for.end:                                          ; preds = %for.cond
  %18 = load ptr, ptr %vdev.addr, align 8
  call void @vfio_quirk_reset(ptr noundef %18)
  ret void
}