; Function Attrs: nounwind sspstrong uwtable
define internal fastcc void @vfio_pci_post_reset(ptr noundef %vdev) unnamed_addr #0 {
entry:
  %err = alloca ptr, align 8
  %val = alloca i32, align 4
  store ptr null, ptr %err, align 8
  %call = call fastcc i32 @vfio_intx_enable(ptr noundef %vdev, ptr noundef nonnull %err)
  %0 = load ptr, ptr %err, align 8
  %tobool.not = icmp eq ptr %0, null
  br i1 %tobool.not, label %if.end, label %if.then

if.then:                                          ; preds = %entry
  %name = getelementptr inbounds nuw i8, ptr %vdev, i64 2680
  %1 = load ptr, ptr %name, align 8
  call void (ptr, ptr, ...) @error_reportf_err(ptr noundef nonnull %0, ptr noundef nonnull @.str.42, ptr noundef %1) #23
  br label %if.end

if.end:                                           ; preds = %if.then, %entry
  %config_offset = getelementptr inbounds nuw i8, ptr %vdev, i64 2824
  %fd = getelementptr inbounds nuw i8, ptr %vdev, i64 2696
  %name10 = getelementptr inbounds nuw i8, ptr %vdev, i64 2680
  br label %for.body

for.body:                                         ; preds = %if.end, %for.inc
  %indvars.iv = phi i64 [ 0, %if.end ], [ %indvars.iv.next, %for.inc ]
  %2 = load i64, ptr %config_offset, align 8
  %3 = shl nuw nsw i64 %indvars.iv, 2
  %4 = add nuw nsw i64 %3, 16
  %add1 = add i64 %2, %4
  store i32 0, ptr %val, align 4
  %5 = load i32, ptr %fd, align 8
  %call4 = call i64 @pwrite64(i32 noundef %5, ptr noundef nonnull %val, i64 noundef 4, i64 noundef %add1) #23
  %cmp6.not = icmp eq i64 %call4, 4
  br i1 %cmp6.not, label %for.inc, label %if.then8

if.then8:                                         ; preds = %for.body
  %6 = load ptr, ptr %name10, align 8
  %7 = trunc nuw nsw i64 %indvars.iv to i32
  call void (ptr, ...) @error_report(ptr noundef nonnull @.str.95, ptr noundef nonnull @__func__.vfio_pci_post_reset, ptr noundef %6, i32 noundef %7) #23
  br label %for.inc

for.inc:                                          ; preds = %for.body, %if.then8
  %indvars.iv.next = add nuw nsw i64 %indvars.iv, 1
  %exitcond.not = icmp eq i64 %indvars.iv.next, 6
  br i1 %exitcond.not, label %for.end, label %for.body, !llvm.loop !23

for.end:                                          ; preds = %for.inc
  call void @vfio_quirk_reset(ptr noundef nonnull %vdev) #23
  ret void
}